; Function Attrs: mustprogress nofree norecurse nosync nounwind willreturn memory(argmem: readwrite) uwtable
define internal noundef zeroext i1 @"_ZNSt17_Function_handlerIFbRKN32pxrInternal_v0_24__pxrReserved__7SdfPathEEZNS0_39UsdImaging_NiPrototypePruningSceneIndex11_PrimsAddedERKNS0_16HdSceneIndexBaseERKNS0_13TfSmallVectorINS0_20HdSceneIndexObserver14AddedPrimEntryELj16EEEE3$_0E10_M_managerERSt9_Any_dataRKSH_St18_Manager_operation"(ptr nocapture noundef nonnull writeonly align 8 dereferenceable(16) %0, ptr noundef nonnull align 8 dereferenceable(16) %1, i32 noundef %2) #12 align 2 personality ptr @__gxx_personality_v0 {
  switch i32 %2, label %"_ZNSt14_Function_base13_Base_managerIZN32pxrInternal_v0_24__pxrReserved__39UsdImaging_NiPrototypePruningSceneIndex11_PrimsAddedERKNS1_16HdSceneIndexBaseERKNS1_13TfSmallVectorINS1_20HdSceneIndexObserver14AddedPrimEntryELj16EEEE3$_0E10_M_managerERSt9_Any_dataRKSE_St18_Manager_operation.exit" [
    i32 0, label %4
    i32 1, label %5
    i32 2, label %6
  ]

4:                                                ; preds = %3
  store ptr @"_ZTIZN32pxrInternal_v0_24__pxrReserved__39UsdImaging_NiPrototypePruningSceneIndex11_PrimsAddedERKNS_16HdSceneIndexBaseERKNS_13TfSmallVectorINS_20HdSceneIndexObserver14AddedPrimEntryELj16EEEE3$_0", ptr %0, align 8
  br label %"_ZNSt14_Function_base13_Base_managerIZN32pxrInternal_v0_24__pxrReserved__39UsdImaging_NiPrototypePruningSceneIndex11_PrimsAddedERKNS1_16HdSceneIndexBaseERKNS1_13TfSmallVectorINS1_20HdSceneIndexObserver14AddedPrimEntryELj16EEEE3$_0E10_M_managerERSt9_Any_dataRKSE_St18_Manager_operation.exit"

5:                                                ; preds = %3
  store ptr %1, ptr %0, align 8
  br label %"_ZNSt14_Function_base13_Base_managerIZN32pxrInternal_v0_24__pxrReserved__39UsdImaging_NiPrototypePruningSceneIndex11_PrimsAddedERKNS1_16HdSceneIndexBaseERKNS1_13TfSmallVectorINS1_20HdSceneIndexObserver14AddedPrimEntryELj16EEEE3$_0E10_M_managerERSt9_Any_dataRKSE_St18_Manager_operation.exit"

6:                                                ; preds = %3
  %.val.i = load i64, ptr %1, align 8
  store i64 %.val.i, ptr %0, align 8
  br label %"_ZNSt14_Function_base13_Base_managerIZN32pxrInternal_v0_24__pxrReserved__39UsdImaging_NiPrototypePruningSceneIndex11_PrimsAddedERKNS1_16HdSceneIndexBaseERKNS1_13TfSmallVectorINS1_20HdSceneIndexObserver14AddedPrimEntryELj16EEEE3$_0E10_M_managerERSt9_Any_dataRKSE_St18_Manager_operation.exit"

"_ZNSt14_Function_base13_Base_managerIZN32pxrInternal_v0_24__pxrReserved__39UsdImaging_NiPrototypePruningSceneIndex11_PrimsAddedERKNS1_16HdSceneIndexBaseERKNS1_13TfSmallVectorINS1_20HdSceneIndexObserver14AddedPrimEntryELj16EEEE3$_0E10_M_managerERSt9_Any_dataRKSE_St18_Manager_operation.exit": ; preds = %3, %6, %5, %4
  ret i1 false
}